target datalayout = "e-m:e-p270:32:32-p271:32:32-p272:64:64-i64:64-i128:128-f80:128-n8:16:32:64-S128"
target triple = "x86_64-pc-linux-gnu"

%struct.mbedtls_ecp_group = type { i32, %struct.mbedtls_mpi, %struct.mbedtls_mpi, %struct.mbedtls_mpi, %struct.mbedtls_ecp_point, %struct.mbedtls_mpi, i64, i64, i32, ptr, ptr, ptr, ptr, ptr, i64 }
%struct.mbedtls_ecp_point = type { %struct.mbedtls_mpi, %struct.mbedtls_mpi, %struct.mbedtls_mpi }
%struct.mbedtls_mpi = type { ptr, i16, i16 }

; Function Attrs: nounwind uwtable
define hidden i32 @mbedtls_ecp_get_type(ptr noundef %0) #0 {
  %2 = alloca i32, align 4
  %3 = alloca ptr, align 8
  store ptr %0, ptr %3, align 8, !tbaa !25
  %4 = load ptr, ptr %3, align 8, !tbaa !25
  %5 = getelementptr inbounds nuw %struct.mbedtls_ecp_group, ptr %4, i32 0, i32 4
  %6 = getelementptr inbounds nuw %struct.mbedtls_ecp_point, ptr %5, i32 0, i32 0
  %7 = getelementptr inbounds nuw %struct.mbedtls_mpi, ptr %6, i32 0, i32 0
  %8 = load ptr, ptr %7, align 8, !tbaa !27
  %9 = icmp eq ptr %8, null
  br i1 %9, label %10, label %11

10:                                               ; preds = %1
  store i32 0, ptr %2, align 4
  br label %20

11:                                               ; preds = %1
  %12 = load ptr, ptr %3, align 8, !tbaa !25
  %13 = getelementptr inbounds nuw %struct.mbedtls_ecp_group, ptr %12, i32 0, i32 4
  %14 = getelementptr inbounds nuw %struct.mbedtls_ecp_point, ptr %13, i32 0, i32 1
  %15 = getelementptr inbounds nuw %struct.mbedtls_mpi, ptr %14, i32 0, i32 0
  %16 = load ptr, ptr %15, align 8, !tbaa !33
  %17 = icmp eq ptr %16, null
  br i1 %17, label %18, label %19

18:                                               ; preds = %11
  store i32 2, ptr %2, align 4
  br label %20

19:                                               ; preds = %11
  store i32 1, ptr %2, align 4
  br label %20

20:                                               ; preds = %19, %18, %10
  %21 = load i32, ptr %2, align 4
  ret i32 %21
}