; Function Attrs: mustprogress nofree norecurse nosync nounwind willreturn memory(argmem: read) uwtable
define hidden range(i32 0, 3) i32 @mbedtls_ecp_get_type(ptr noundef readonly captures(none) %0) local_unnamed_addr #6 {
  %2 = getelementptr inbounds nuw i8, ptr %0, i64 56
  %3 = load ptr, ptr %2, align 8, !tbaa !19
  %4 = icmp eq ptr %3, null
  br i1 %4, label %9, label %5

5:                                                ; preds = %1
  %6 = getelementptr inbounds nuw i8, ptr %0, i64 72
  %7 = load ptr, ptr %6, align 8, !tbaa !26
  %8 = icmp eq ptr %7, null
  %. = select i1 %8, i32 2, i32 1
  br label %9

9:                                                ; preds = %5, %1
  %.0 = phi i32 [ 0, %1 ], [ %., %5 ]
  ret i32 %.0
}